; ModuleID = '9/553.c'
source_filename = "9/553.c"
target datalayout = "e-m:e-p270:32:32-p271:32:32-p272:64:64-i64:64-f80:128-n8:16:32:64-S128"
target triple = "x86_64-pc-linux-gnu"

@.str = private unnamed_addr constant [3 x i8] c"%d\00", align 1
@.str.1 = private unnamed_addr constant [6 x i8] c"%s %d\00", align 1
@.str.2 = private unnamed_addr constant [4 x i8] c"%s\0A\00", align 1

; Function Attrs: noinline nounwind uwtable
define dso_local i32 @main() #0 {
  %1 = alloca i32, align 4
  %2 = alloca i32, align 4
  %3 = alloca i32, align 4
  %4 = alloca i32, align 4
  %5 = alloca i32, align 4
  %6 = alloca i32, align 4
  %7 = alloca i32, align 4
  %8 = alloca i32, align 4
  %9 = alloca i32, align 4
  %10 = alloca i8*, align 8
  %11 = alloca i64, align 8
  %12 = alloca i64, align 8
  %13 = alloca i64, align 8
  %14 = alloca i64, align 8
  store i32 0, i32* %1, align 4
  %15 = call i32 (i8*, ...) @__isoc99_scanf(i8* getelementptr inbounds ([3 x i8], [3 x i8]* @.str, i64 0, i64 0), i32* %2)
  %16 = load i32, i32* %2, align 4
  %17 = sub nsw i32 %16, 1
  %18 = zext i32 %17 to i64
  %19 = call i8* @llvm.stacksave()
  store i8* %19, i8** %10, align 8
  %20 = alloca i32, i64 %18, align 16
  store i64 %18, i64* %11, align 8
  %21 = load i32, i32* %2, align 4
  %22 = sub nsw i32 %21, 1
  %23 = zext i32 %22 to i64
  %24 = alloca i32, i64 %23, align 16
  store i64 %23, i64* %12, align 8
  %25 = load i32, i32* %2, align 4
  %26 = sub nsw i32 %25, 1
  %27 = zext i32 %26 to i64
  %28 = alloca [10 x i8], i64 %27, align 16
  store i64 %27, i64* %13, align 8
  %29 = load i32, i32* %2, align 4
  %30 = sub nsw i32 %29, 1
  %31 = zext i32 %30 to i64
  %32 = alloca [10 x i8], i64 %31, align 16
  store i64 %31, i64* %14, align 8
  store i32 0, i32* %3, align 4
  br label %33

33:                                               ; preds = %47, %0
  %34 = load i32, i32* %3, align 4
  %35 = load i32, i32* %2, align 4
  %36 = sub nsw i32 %35, 1
  %37 = icmp sle i32 %34, %36
  br i1 %37, label %38, label %50

38:                                               ; preds = %33
  %39 = load i32, i32* %3, align 4
  %40 = sext i32 %39 to i64
  %41 = getelementptr inbounds [10 x i8], [10 x i8]* %28, i64 %40
  %42 = getelementptr inbounds [10 x i8], [10 x i8]* %41, i64 0, i64 0
  %43 = load i32, i32* %3, align 4
  %44 = sext i32 %43 to i64
  %45 = getelementptr inbounds i32, i32* %20, i64 %44
  %46 = call i32 (i8*, ...) @__isoc99_scanf(i8* getelementptr inbounds ([6 x i8], [6 x i8]* @.str.1, i64 0, i64 0), i8* %42, i32* %45)
  br label %47

47:                                               ; preds = %38
  %48 = load i32, i32* %3, align 4
  %49 = add nsw i32 %48, 1
  store i32 %49, i32* %3, align 4
  br label %33

50:                                               ; preds = %33
  store i32 0, i32* %9, align 4
  store i32 0, i32* %5, align 4
  br label %51

51:                                               ; preds = %82, %50
  %52 = load i32, i32* %9, align 4
  %53 = load i32, i32* %2, align 4
  %54 = sub nsw i32 %53, 1
  %55 = icmp sle i32 %52, %54
  br i1 %55, label %56, label %85

56:                                               ; preds = %51
  %57 = load i32, i32* %9, align 4
  %58 = sext i32 %57 to i64
  %59 = getelementptr inbounds i32, i32* %20, i64 %58
  %60 = load i32, i32* %59, align 4
  %61 = icmp sge i32 %60, 60
  br i1 %61, label %62, label %81

62:                                               ; preds = %56
  %63 = load i32, i32* %9, align 4
  %64 = sext i32 %63 to i64
  %65 = getelementptr inbounds i32, i32* %20, i64 %64
  %66 = load i32, i32* %65, align 4
  %67 = load i32, i32* %5, align 4
  %68 = sext i32 %67 to i64
  %69 = getelementptr inbounds i32, i32* %24, i64 %68
  store i32 %66, i32* %69, align 4
  %70 = load i32, i32* %5, align 4
  %71 = sext i32 %70 to i64
  %72 = getelementptr inbounds [10 x i8], [10 x i8]* %32, i64 %71
  %73 = getelementptr inbounds [10 x i8], [10 x i8]* %72, i64 0, i64 0
  %74 = load i32, i32* %9, align 4
  %75 = sext i32 %74 to i64
  %76 = getelementptr inbounds [10 x i8], [10 x i8]* %28, i64 %75
  %77 = getelementptr inbounds [10 x i8], [10 x i8]* %76, i64 0, i64 0
  %78 = call i8* @strcpy(i8* %73, i8* %77) #2
  %79 = load i32, i32* %5, align 4
  %80 = add nsw i32 %79, 1
  store i32 %80, i32* %5, align 4
  br label %81

81:                                               ; preds = %62, %56
  br label %82

82:                                               ; preds = %81
  %83 = load i32, i32* %9, align 4
  %84 = add nsw i32 %83, 1
  store i32 %84, i32* %9, align 4
  br label %51

85:                                               ; preds = %51
  store i32 1, i32* %6, align 4
  br label %86

86:                                               ; preds = %138, %85
  %87 = load i32, i32* %6, align 4
  %88 = load i32, i32* %5, align 4
  %89 = icmp sle i32 %87, %88
  br i1 %89, label %90, label %141

90:                                               ; preds = %86
  store i32 1, i32* %7, align 4
  br label %91

91:                                               ; preds = %134, %90
  %92 = load i32, i32* %7, align 4
  %93 = load i32, i32* %5, align 4
  %94 = icmp sle i32 %92, %93
  br i1 %94, label %95, label %137

95:                                               ; preds = %91
  store i32 0, i32* %4, align 4
  store i32 0, i32* %8, align 4
  br label %96

96:                                               ; preds = %115, %95
  %97 = load i32, i32* %4, align 4
  %98 = load i32, i32* %5, align 4
  %99 = icmp slt i32 %97, %98
  br i1 %99, label %100, label %118

100:                                              ; preds = %96
  %101 = load i32, i32* %7, align 4
  %102 = sub nsw i32 %101, 1
  %103 = sext i32 %102 to i64
  %104 = getelementptr inbounds i32, i32* %24, i64 %103
  %105 = load i32, i32* %104, align 4
  %106 = load i32, i32* %4, align 4
  %107 = sext i32 %106 to i64
  %108 = getelementptr inbounds i32, i32* %24, i64 %107
  %109 = load i32, i32* %108, align 4
  %110 = icmp sge i32 %105, %109
  br i1 %110, label %111, label %114

111:                                              ; preds = %100
  %112 = load i32, i32* %8, align 4
  %113 = add nsw i32 %112, 1
  store i32 %113, i32* %8, align 4
  br label %114

114:                                              ; preds = %111, %100
  br label %115

115:                                              ; preds = %114
  %116 = load i32, i32* %4, align 4
  %117 = add nsw i32 %116, 1
  store i32 %117, i32* %4, align 4
  br label %96

118:                                              ; preds = %96
  %119 = load i32, i32* %8, align 4
  %120 = load i32, i32* %5, align 4
  %121 = icmp eq i32 %119, %120
  br i1 %121, label %122, label %133

122:                                              ; preds = %118
  %123 = load i32, i32* %7, align 4
  %124 = sub nsw i32 %123, 1
  %125 = sext i32 %124 to i64
  %126 = getelementptr inbounds [10 x i8], [10 x i8]* %32, i64 %125
  %127 = getelementptr inbounds [10 x i8], [10 x i8]* %126, i64 0, i64 0
  %128 = call i32 (i8*, ...) @printf(i8* getelementptr inbounds ([4 x i8], [4 x i8]* @.str.2, i64 0, i64 0), i8* %127)
  %129 = load i32, i32* %7, align 4
  %130 = sub nsw i32 %129, 1
  %131 = sext i32 %130 to i64
  %132 = getelementptr inbounds i32, i32* %24, i64 %131
  store i32 0, i32* %132, align 4
  br label %137

133:                                              ; preds = %118
  br label %134

134:                                              ; preds = %133
  %135 = load i32, i32* %7, align 4
  %136 = add nsw i32 %135, 1
  store i32 %136, i32* %7, align 4
  br label %91

137:                                              ; preds = %122, %91
  br label %138

138:                                              ; preds = %137
  %139 = load i32, i32* %6, align 4
  %140 = add nsw i32 %139, 1
  store i32 %140, i32* %6, align 4
  br label %86

141:                                              ; preds = %86
  store i32 0, i32* %4, align 4
  br label %142

142:                                              ; preds = %159, %141
  %143 = load i32, i32* %4, align 4
  %144 = load i32, i32* %2, align 4
  %145 = icmp slt i32 %143, %144
  br i1 %145, label %146, label %162

146:                                              ; preds = %142
  %147 = load i32, i32* %4, align 4
  %148 = sext i32 %147 to i64
  %149 = getelementptr inbounds i32, i32* %20, i64 %148
  %150 = load i32, i32* %149, align 4
  %151 = icmp slt i32 %150, 60
  br i1 %151, label %152, label %158

152:                                              ; preds = %146
  %153 = load i32, i32* %4, align 4
  %154 = sext i32 %153 to i64
  %155 = getelementptr inbounds [10 x i8], [10 x i8]* %28, i64 %154
  %156 = getelementptr inbounds [10 x i8], [10 x i8]* %155, i64 0, i64 0
  %157 = call i32 (i8*, ...) @printf(i8* getelementptr inbounds ([4 x i8], [4 x i8]* @.str.2, i64 0, i64 0), i8* %156)
  br label %158

158:                                              ; preds = %152, %146
  br label %159

159:                                              ; preds = %158
  %160 = load i32, i32* %4, align 4
  %161 = add nsw i32 %160, 1
  store i32 %161, i32* %4, align 4
  br label %142

162:                                              ; preds = %142
  %163 = call i32 @getchar()
  %164 = call i32 @getchar()
  %165 = load i8*, i8** %10, align 8
  call void @llvm.stackrestore(i8* %165)
  %166 = load i32, i32* %1, align 4
  ret i32 %166
}

declare dso_local i32 @__isoc99_scanf(i8*, ...) #1

; Function Attrs: nounwind
declare i8* @llvm.stacksave() #2

; Function Attrs: nounwind
declare dso_local i8* @strcpy(i8*, i8*) #3

declare dso_local i32 @printf(i8*, ...) #1

declare dso_local i32 @getchar() #1

; Function Attrs: nounwind
declare void @llvm.stackrestore(i8*) #2


!llvm.module.flags = !{!0}
!llvm.ident = !{!1}

!0 = !{i32 1, !"wchar_size", i32 4}
!1 = !{!"clang version 10.0.0-4ubuntu1 "}
